; Function Attrs: mustprogress uwtable
define void @_ZN5faiss14IndexBinaryIVF5resetEv(ptr noundef nonnull align 8 dereferenceable(232) %0) unnamed_addr #1 align 2 {
  %2 = getelementptr inbounds i8, ptr %0, i64 72
  tail call void @_ZN5faiss9DirectMap5clearEv(ptr noundef nonnull align 8 dereferenceable(88) %2)
  %3 = getelementptr inbounds i8, ptr %0, i64 32
  %4 = load ptr, ptr %3, align 8
  %5 = load ptr, ptr %4, align 8
  %6 = getelementptr inbounds i8, ptr %5, i64 128
  %7 = load ptr, ptr %6, align 8
  tail call void %7(ptr noundef nonnull align 8 dereferenceable(25) %4)
  %8 = getelementptr inbounds i8, ptr %0, i64 16
  store i64 0, ptr %8, align 8
  ret void
}